
main:     file format elf32-littleriscv


Disassembly of section .init:

00400000 <_start>:
  400000:	1fc18197          	auipc	gp,0x1fc18
  400004:	01018193          	addi	gp,gp,16 # 20018010 <__global_pointer$>
  400008:	7fbff117          	auipc	sp,0x7fbff
  40000c:	ff410113          	addi	sp,sp,-12 # 7fffeffc <__stack_top>
  400010:	00010433          	add	s0,sp,zero
  400014:	010000ef          	jal	ra,400024 <main>

00400018 <el>:
  400018:	0000006f          	j	400018 <el>
  40001c:	00000013          	nop
  400020:	00000013          	nop

Disassembly of section .text:

00400024 <main>:
  400024:	100107b7          	lui	a5,0x10010
  400028:	0187a503          	lw	a0,24(a5) # 10010018 <Li>
  40002c:	100106b7          	lui	a3,0x10010
  400030:	10010637          	lui	a2,0x10010
  400034:	100105b7          	lui	a1,0x10010
  400038:	ff010113          	addi	sp,sp,-16
  40003c:	01c68693          	addi	a3,a3,28 # 1001001c <_edata>
  400040:	00060613          	mv	a2,a2
  400044:	01058593          	addi	a1,a1,16 # 10010010 <Lo>
  400048:	00112623          	sw	ra,12(sp)
  40004c:	014000ef          	jal	ra,400060 <maxx>
  400050:	00c12083          	lw	ra,12(sp)
  400054:	00000513          	li	a0,0
  400058:	01010113          	addi	sp,sp,16
  40005c:	00008067          	ret

00400060 <maxx>:
  400060:	0005a703          	lw	a4,0(a1)
  400064:	0045a783          	lw	a5,4(a1)
  400068:	00e50533          	add	a0,a0,a4
  40006c:	00462703          	lw	a4,4(a2) # 10010004 <sS+0x4>
  400070:	00f50833          	add	a6,a0,a5
  400074:	00062583          	lw	a1,0(a2)
  400078:	00e80733          	add	a4,a6,a4
  40007c:	00058893          	mv	a7,a1
  400080:	00e5d463          	ble	a4,a1,400088 <maxx+0x28>
  400084:	00070893          	mv	a7,a4
  400088:	40e585b3          	sub	a1,a1,a4
  40008c:	00f58593          	addi	a1,a1,15
  400090:	01e00713          	li	a4,30
  400094:	00b76463          	bltu	a4,a1,40009c <maxx+0x3c>
  400098:	00388893          	addi	a7,a7,3
  40009c:	0116a023          	sw	a7,0(a3)
  4000a0:	00c62703          	lw	a4,12(a2)
  4000a4:	00862583          	lw	a1,8(a2)
  4000a8:	00e78733          	add	a4,a5,a4
  4000ac:	00b505b3          	add	a1,a0,a1
  4000b0:	00070893          	mv	a7,a4
  4000b4:	00b75463          	ble	a1,a4,4000bc <maxx+0x5c>
  4000b8:	00058893          	mv	a7,a1
  4000bc:	40b70733          	sub	a4,a4,a1
  4000c0:	00f70713          	addi	a4,a4,15
  4000c4:	01e00593          	li	a1,30
  4000c8:	00e5e463          	bltu	a1,a4,4000d0 <maxx+0x70>
  4000cc:	00388893          	addi	a7,a7,3
  4000d0:	0116a223          	sw	a7,4(a3)
  4000d4:	00062583          	lw	a1,0(a2)
  4000d8:	00462703          	lw	a4,4(a2)
  4000dc:	00b805b3          	add	a1,a6,a1
  4000e0:	00070813          	mv	a6,a4
  4000e4:	00b75463          	ble	a1,a4,4000ec <maxx+0x8c>
  4000e8:	00058813          	mv	a6,a1
  4000ec:	40b70733          	sub	a4,a4,a1
  4000f0:	00f70713          	addi	a4,a4,15
  4000f4:	01e00593          	li	a1,30
  4000f8:	00e5e463          	bltu	a1,a4,400100 <maxx+0xa0>
  4000fc:	00380813          	addi	a6,a6,3
  400100:	0106a423          	sw	a6,8(a3)
  400104:	00c62703          	lw	a4,12(a2)
  400108:	00862583          	lw	a1,8(a2)
  40010c:	00e50533          	add	a0,a0,a4
  400110:	00b787b3          	add	a5,a5,a1
  400114:	00078713          	mv	a4,a5
  400118:	00a7d463          	ble	a0,a5,400120 <maxx+0xc0>
  40011c:	00050713          	mv	a4,a0
  400120:	40a787b3          	sub	a5,a5,a0
  400124:	00f78793          	addi	a5,a5,15
  400128:	01e00613          	li	a2,30
  40012c:	00f66463          	bltu	a2,a5,400134 <maxx+0xd4>
  400130:	00370713          	addi	a4,a4,3
  400134:	00e6a623          	sw	a4,12(a3)
  400138:	00008067          	ret
